; Function Attrs: mustprogress nounwind uwtable
define void @_ZN6LibRaw10free_imageEv(ptr noundef nonnull align 8 captures(none) dereferenceable(767680) %0) local_unnamed_addr #10 align 2 {
  %2 = getelementptr inbounds nuw i8, ptr %0, i64 8
  %3 = load ptr, ptr %2, align 8, !tbaa !108
  %.not = icmp eq ptr %3, null
  br i1 %.not, label %14, label %.preheader.i.i.i

.preheader.i.i.i:                                 ; preds = %1
  %4 = getelementptr inbounds nuw i8, ptr %0, i64 767416
  %5 = load ptr, ptr %4, align 8, !tbaa !16
  br label %7

6:                                                ; preds = %7
  %indvars.iv.next.i.i.i = add nuw nsw i64 %indvars.iv.i.i.i, 1
  %exitcond.not.i.i.i = icmp eq i64 %indvars.iv.next.i.i.i, 512
  br i1 %exitcond.not.i.i.i, label %_ZN6LibRaw4freeEPv.exit, label %7, !llvm.loop !22

7:                                                ; preds = %6, %.preheader.i.i.i
  %indvars.iv.i.i.i = phi i64 [ 0, %.preheader.i.i.i ], [ %indvars.iv.next.i.i.i, %6 ]
  %8 = getelementptr inbounds nuw ptr, ptr %5, i64 %indvars.iv.i.i.i
  %9 = load ptr, ptr %8, align 8, !tbaa !19
  %10 = icmp eq ptr %9, %3
  br i1 %10, label %11, label %6

11:                                               ; preds = %7
  %12 = getelementptr inbounds nuw ptr, ptr %5, i64 %indvars.iv.i.i.i
  store ptr null, ptr %12, align 8, !tbaa !19
  br label %_ZN6LibRaw4freeEPv.exit

_ZN6LibRaw4freeEPv.exit:                          ; preds = %6, %11
  tail call void @free(ptr noundef nonnull %3) #30
  store ptr null, ptr %2, align 8, !tbaa !108
  %13 = getelementptr inbounds nuw i8, ptr %0, i64 5496
  store i32 15, ptr %13, align 8, !tbaa !109
  br label %14

14:                                               ; preds = %_ZN6LibRaw4freeEPv.exit, %1
  ret void
}